target datalayout = "e-m:e-p270:32:32-p271:32:32-p272:64:64-i64:64-i128:128-f80:128-n8:16:32:64-S128"
target triple = "x86_64-pc-linux-gnu"

%struct._range = type { i64, i64, i32 }

@.str.7 = private unnamed_addr constant [11 x i8] c"hostlist.c\00", align 1
@.str.13 = private unnamed_addr constant [47 x i8] c"%s: Too many ranges, can't process entire list\00", align 1
@__func__._parse_range_list = private unnamed_addr constant [18 x i8] c"_parse_range_list\00", align 1
@.str.15 = private unnamed_addr constant [40 x i8] c"%s: Can't grow ranges -- already at max\00", align 1
@__func__._grow_ranges = private unnamed_addr constant [13 x i8] c"_grow_ranges\00", align 1

; Function Attrs: nounwind uwtable
define internal i32 @_grow_ranges(ptr noundef %0, ptr noundef %1, i32 noundef %2) #0 {
  %4 = alloca ptr, align 8
  %5 = alloca ptr, align 8
  %6 = alloca i32, align 4
  %7 = alloca i32, align 4
  store ptr %0, ptr %4, align 8
  store ptr %1, ptr %5, align 8
  store i32 %2, ptr %6, align 4
  call void @llvm.lifetime.start.p0(i64 4, ptr %7) #13
  %8 = load ptr, ptr %5, align 8
  %9 = load i32, ptr %8, align 4
  %10 = load i32, ptr %6, align 4
  %11 = icmp sge i32 %9, %10
  br i1 %11, label %12, label %13

12:                                               ; preds = %3
  call void (ptr, ...) @fatal(ptr noundef @.str.15, ptr noundef @__func__._grow_ranges) #15
  unreachable

13:                                               ; preds = %3
  %14 = load ptr, ptr %5, align 8
  %15 = load i32, ptr %14, align 4
  %16 = mul nsw i32 %15, 2
  %17 = add nsw i32 %16, 10
  store i32 %17, ptr %7, align 4
  %18 = load i32, ptr %7, align 4
  %19 = load i32, ptr %6, align 4
  %20 = icmp sgt i32 %18, %19
  br i1 %20, label %21, label %23

21:                                               ; preds = %13
  %22 = load i32, ptr %6, align 4
  store i32 %22, ptr %7, align 4
  br label %23

23:                                               ; preds = %21, %13
  %24 = load ptr, ptr %4, align 8
  %25 = load i32, ptr %7, align 4
  %26 = sext i32 %25 to i64
  %27 = mul i64 24, %26
  %28 = call ptr @slurm_xrecalloc(ptr noundef %24, i64 noundef 1, i64 noundef %27, i1 noundef zeroext false, i1 noundef zeroext false, ptr noundef @.str.7, i32 noundef 1479, ptr noundef @__func__._grow_ranges)
  %29 = load i32, ptr %7, align 4
  %30 = load ptr, ptr %5, align 8
  store i32 %29, ptr %30, align 4
  call void @llvm.lifetime.end.p0(i64 4, ptr %7) #13
  ret i32 1
}

; Function Attrs: nounwind uwtable
define internal i32 @_parse_range_list(ptr noundef %0, ptr noundef %1, ptr noundef %2, i32 noundef %3, i32 noundef %4) #0 {
  %6 = alloca i32, align 4
  %7 = alloca ptr, align 8
  %8 = alloca ptr, align 8
  %9 = alloca ptr, align 8
  %10 = alloca i32, align 4
  %11 = alloca i32, align 4
  %12 = alloca ptr, align 8
  %13 = alloca i32, align 4
  %14 = alloca i32, align 4
  store ptr %0, ptr %7, align 8
  store ptr %1, ptr %8, align 8
  store ptr %2, ptr %9, align 8
  store i32 %3, ptr %10, align 4
  store i32 %4, ptr %11, align 4
  call void @llvm.lifetime.start.p0(i64 8, ptr %12) #13
  call void @llvm.lifetime.start.p0(i64 4, ptr %13) #13
  store i32 0, ptr %13, align 4
  br label %15

15:                                               ; preds = %85, %5
  %16 = load ptr, ptr %7, align 8
  %17 = icmp ne ptr %16, null
  br i1 %17, label %18, label %87

18:                                               ; preds = %15
  %19 = load i32, ptr %13, align 4
  %20 = load i32, ptr %10, align 4
  %21 = icmp eq i32 %19, %20
  br i1 %21, label %22, label %23

22:                                               ; preds = %18
  call void (ptr, ...) @fatal(ptr noundef @.str.13, ptr noundef @__func__._parse_range_list) #15
  unreachable

23:                                               ; preds = %18
  %24 = load ptr, ptr %7, align 8
  %25 = call ptr @strchr(ptr noundef %24, i32 noundef 44) #16
  store ptr %25, ptr %12, align 8
  %26 = icmp ne ptr %25, null
  br i1 %26, label %27, label %30

27:                                               ; preds = %23
  %28 = load ptr, ptr %12, align 8
  %29 = getelementptr inbounds nuw i8, ptr %28, i32 1
  store ptr %29, ptr %12, align 8
  store i8 0, ptr %28, align 1
  br label %30

30:                                               ; preds = %27, %23
  %31 = load i32, ptr %11, align 4
  %32 = icmp sgt i32 %31, 1
  br i1 %32, label %33, label %59

33:                                               ; preds = %30
  %34 = load ptr, ptr %7, align 8
  %35 = load i32, ptr %11, align 4
  %36 = sext i32 %35 to i64
  %37 = getelementptr inbounds i8, ptr %34, i64 %36
  %38 = load i8, ptr %37, align 1
  %39 = sext i8 %38 to i32
  %40 = icmp eq i32 %39, 120
  br i1 %40, label %41, label %59

41:                                               ; preds = %33
  %42 = load ptr, ptr %7, align 8
  %43 = call i64 @strlen(ptr noundef %42) #16
  %44 = load i32, ptr %11, align 4
  %45 = mul nsw i32 %44, 2
  %46 = add nsw i32 %45, 1
  %47 = sext i32 %46 to i64
  %48 = icmp eq i64 %43, %47
  br i1 %48, label %49, label %59

49:                                               ; preds = %41
  %50 = load ptr, ptr %7, align 8
  %51 = load ptr, ptr %8, align 8
  %52 = load ptr, ptr %9, align 8
  %53 = load i32, ptr %10, align 4
  %54 = load i32, ptr %11, align 4
  %55 = call i32 @_parse_box_range(ptr noundef %50, ptr noundef %51, ptr noundef %52, i32 noundef %53, ptr noundef %13, i32 noundef %54)
  %56 = icmp ne i32 %55, 0
  br i1 %56, label %58, label %57

57:                                               ; preds = %49
  store i32 -1, ptr %6, align 4
  store i32 1, ptr %14, align 4
  br label %89

58:                                               ; preds = %49
  br label %85

59:                                               ; preds = %41, %33, %30
  %60 = load i32, ptr %13, align 4
  %61 = load ptr, ptr %9, align 8
  %62 = load i32, ptr %61, align 4
  %63 = icmp sge i32 %60, %62
  br i1 %63, label %64, label %72

64:                                               ; preds = %59
  %65 = load ptr, ptr %8, align 8
  %66 = load ptr, ptr %9, align 8
  %67 = load i32, ptr %10, align 4
  %68 = call i32 @_grow_ranges(ptr noundef %65, ptr noundef %66, i32 noundef %67)
  %69 = icmp ne i32 %68, 0
  br i1 %69, label %71, label %70

70:                                               ; preds = %64
  store i32 -1, ptr %6, align 4
  store i32 1, ptr %14, align 4
  br label %89

71:                                               ; preds = %64
  br label %72

72:                                               ; preds = %71, %59
  %73 = load ptr, ptr %7, align 8
  %74 = load ptr, ptr %8, align 8
  %75 = load ptr, ptr %74, align 8
  %76 = load i32, ptr %13, align 4
  %77 = add nsw i32 %76, 1
  store i32 %77, ptr %13, align 4
  %78 = sext i32 %76 to i64
  %79 = getelementptr inbounds %struct._range, ptr %75, i64 %78
  %80 = load i32, ptr %11, align 4
  %81 = call i32 @_parse_single_range(ptr noundef %73, ptr noundef %79, i32 noundef %80)
  %82 = icmp ne i32 %81, 0
  br i1 %82, label %84, label %83

83:                                               ; preds = %72
  store i32 -1, ptr %6, align 4
  store i32 1, ptr %14, align 4
  br label %89

84:                                               ; preds = %72
  br label %85

85:                                               ; preds = %84, %58
  %86 = load ptr, ptr %12, align 8
  store ptr %86, ptr %7, align 8
  br label %15, !llvm.loop !67

87:                                               ; preds = %15
  %88 = load i32, ptr %13, align 4
  store i32 %88, ptr %6, align 4
  store i32 1, ptr %14, align 4
  br label %89

89:                                               ; preds = %87, %83, %70, %57
  call void @llvm.lifetime.end.p0(i64 4, ptr %13) #13
  call void @llvm.lifetime.end.p0(i64 8, ptr %12) #13
  %90 = load i32, ptr %6, align 4
  ret i32 %90
}