; Function Attrs: nounwind uwtable
define internal fastcc i32 @_parse_range_list(ptr noundef nonnull %0, ptr noundef nonnull %1, ptr noundef nonnull captures(none) %2, i32 noundef %3) unnamed_addr #0 {
  %5 = alloca i32, align 4
  call void @llvm.lifetime.start.p0(i64 4, ptr nonnull %5) #22
  store i32 0, ptr %5, align 4
  %6 = icmp sgt i32 %3, 1
  %7 = zext nneg i32 %3 to i64
  %8 = shl nuw nsw i32 %3, 1
  %9 = or disjoint i32 %8, 1
  %10 = zext nneg i32 %9 to i64
  br i1 %6, label %.split.us, label %.split

.split.us:                                        ; preds = %4, %42
  %.02331.us = phi ptr [ %.0.us, %42 ], [ %0, %4 ]
  %11 = load i32, ptr %5, align 4
  %12 = icmp eq i32 %11, 262144
  br i1 %12, label %.split33.us, label %13

13:                                               ; preds = %.split.us
  %14 = tail call ptr @strchr(ptr noundef nonnull dereferenceable(1) %.02331.us, i32 noundef 44) #23
  %.not27.us = icmp eq ptr %14, null
  br i1 %.not27.us, label %17, label %15

15:                                               ; preds = %13
  %16 = getelementptr inbounds nuw i8, ptr %14, i64 1
  store i8 0, ptr %14, align 1
  br label %17

17:                                               ; preds = %15, %13
  %.0.us = phi ptr [ %16, %15 ], [ null, %13 ]
  %18 = getelementptr inbounds nuw i8, ptr %.02331.us, i64 %7
  %19 = load i8, ptr %18, align 1
  %20 = icmp eq i8 %19, 120
  br i1 %20, label %21, label %24

21:                                               ; preds = %17
  %22 = tail call i64 @strlen(ptr noundef nonnull dereferenceable(1) %.02331.us) #23
  %23 = icmp eq i64 %22, %10
  br i1 %23, label %40, label %24

24:                                               ; preds = %21, %17
  %25 = load i32, ptr %2, align 4
  %.not28.us = icmp slt i32 %11, %25
  br i1 %.not28.us, label %34, label %26

26:                                               ; preds = %24
  %27 = icmp sgt i32 %25, 262143
  br i1 %27, label %.split35.us, label %_grow_ranges.exit.us

_grow_ranges.exit.us:                             ; preds = %26
  %28 = shl nsw i32 %25, 1
  %29 = add nsw i32 %28, 10
  %30 = icmp sgt i32 %25, 131067
  %spec.select.i.us = select i1 %30, i32 262144, i32 %29
  %31 = sext i32 %spec.select.i.us to i64
  %32 = mul nsw i64 %31, 24
  %33 = tail call ptr @slurm_xrecalloc(ptr noundef nonnull %1, i64 noundef 1, i64 noundef %32, i1 noundef zeroext false, i1 noundef zeroext false, ptr noundef nonnull @.str.7, i32 noundef 1479, ptr noundef nonnull @__func__._grow_ranges) #22
  store i32 %spec.select.i.us, ptr %2, align 4
  br label %34

34:                                               ; preds = %_grow_ranges.exit.us, %24
  %35 = load ptr, ptr %1, align 8
  %36 = add nsw i32 %11, 1
  store i32 %36, ptr %5, align 4
  %37 = sext i32 %11 to i64
  %38 = getelementptr inbounds %struct._range, ptr %35, i64 %37
  %39 = tail call fastcc i32 @_parse_single_range(ptr noundef %.02331.us, ptr noundef %38, i32 noundef %3)
  %.not29.us = icmp eq i32 %39, 0
  br i1 %.not29.us, label %.loopexit, label %42

40:                                               ; preds = %21
  %41 = call fastcc i32 @_parse_box_range(ptr noundef %.02331.us, ptr noundef %1, ptr noundef %2, ptr noundef %5, i32 noundef %3)
  %.not30.us = icmp eq i32 %41, 0
  br i1 %.not30.us, label %.loopexit, label %42

42:                                               ; preds = %40, %34
  %.not.us = icmp eq ptr %.0.us, null
  br i1 %.not.us, label %.split37.us.loopexit, label %.split.us, !llvm.loop !69

.split:                                           ; preds = %4, %63
  %indvars.iv = phi i64 [ %indvars.iv.next, %63 ], [ 0, %4 ]
  %.02331 = phi ptr [ %.0, %63 ], [ %0, %4 ]
  %43 = icmp eq i64 %indvars.iv, 262144
  br i1 %43, label %.split33.us, label %44

.split33.us:                                      ; preds = %.split, %.split.us
  tail call void (ptr, ...) @fatal(ptr noundef nonnull @.str.13, ptr noundef nonnull @__func__._parse_range_list) #25
  unreachable

44:                                               ; preds = %.split
  %45 = tail call ptr @strchr(ptr noundef nonnull dereferenceable(1) %.02331, i32 noundef 44) #23
  %.not27 = icmp eq ptr %45, null
  br i1 %.not27, label %48, label %46

46:                                               ; preds = %44
  %47 = getelementptr inbounds nuw i8, ptr %45, i64 1
  store i8 0, ptr %45, align 1
  br label %48

48:                                               ; preds = %46, %44
  %.0 = phi ptr [ %47, %46 ], [ null, %44 ]
  %49 = load i32, ptr %2, align 4
  %50 = sext i32 %49 to i64
  %.not28 = icmp slt i64 %indvars.iv, %50
  br i1 %.not28, label %59, label %51

51:                                               ; preds = %48
  %52 = icmp sgt i32 %49, 262143
  br i1 %52, label %.split35.us, label %_grow_ranges.exit

.split35.us:                                      ; preds = %51, %26
  tail call void (ptr, ...) @fatal(ptr noundef nonnull @.str.15, ptr noundef nonnull @__func__._grow_ranges) #25
  unreachable

_grow_ranges.exit:                                ; preds = %51
  %53 = shl nsw i32 %49, 1
  %54 = add nsw i32 %53, 10
  %55 = icmp sgt i32 %49, 131067
  %spec.select.i = select i1 %55, i32 262144, i32 %54
  %56 = sext i32 %spec.select.i to i64
  %57 = mul nsw i64 %56, 24
  %58 = tail call ptr @slurm_xrecalloc(ptr noundef nonnull %1, i64 noundef 1, i64 noundef %57, i1 noundef zeroext false, i1 noundef zeroext false, ptr noundef nonnull @.str.7, i32 noundef 1479, ptr noundef nonnull @__func__._grow_ranges) #22
  store i32 %spec.select.i, ptr %2, align 4
  br label %59

59:                                               ; preds = %_grow_ranges.exit, %48
  %60 = load ptr, ptr %1, align 8
  %61 = getelementptr inbounds nuw %struct._range, ptr %60, i64 %indvars.iv
  %62 = tail call fastcc i32 @_parse_single_range(ptr noundef %.02331, ptr noundef %61, i32 noundef %3)
  %.not29 = icmp eq i32 %62, 0
  br i1 %.not29, label %.loopexit, label %63

63:                                               ; preds = %59
  %indvars.iv.next = add nuw nsw i64 %indvars.iv, 1
  %.not = icmp eq ptr %.0, null
  br i1 %.not, label %.split37, label %.split, !llvm.loop !69

.split37:                                         ; preds = %63
  %64 = trunc nsw i64 %indvars.iv.next to i32
  br label %.loopexit

.split37.us.loopexit:                             ; preds = %42
  %.pre = load i32, ptr %5, align 4
  br label %.loopexit

.loopexit:                                        ; preds = %59, %40, %34, %.split37, %.split37.us.loopexit
  %.022 = phi i32 [ %.pre, %.split37.us.loopexit ], [ %64, %.split37 ], [ -1, %34 ], [ -1, %40 ], [ -1, %59 ]
  call void @llvm.lifetime.end.p0(i64 4, ptr nonnull %5) #22
  ret i32 %.022
}